; ModuleID = 'source-C-CXX/3/655.c'
source_filename = "source-C-CXX/3/655.c"
target datalayout = "e-m:e-p270:32:32-p271:32:32-p272:64:64-i64:64-f80:128-n8:16:32:64-S128"
target triple = "x86_64-pc-linux-gnu"

@.str = private unnamed_addr constant [5 x i8] c"%d%d\00", align 1
@.str.1 = private unnamed_addr constant [3 x i8] c"%d\00", align 1
@.str.2 = private unnamed_addr constant [4 x i8] c"%d\0A\00", align 1

; Function Attrs: nofree nounwind sspstrong uwtable
define dso_local i32 @main() local_unnamed_addr #0 {
  %1 = alloca i32, align 4
  %2 = alloca i32, align 4
  %3 = alloca [100 x [100 x i32]], align 16
  %4 = bitcast i32* %1 to i8*
  call void @llvm.lifetime.start.p0i8(i64 4, i8* nonnull %4) #3
  %5 = bitcast i32* %2 to i8*
  call void @llvm.lifetime.start.p0i8(i64 4, i8* nonnull %5) #3
  %6 = bitcast [100 x [100 x i32]]* %3 to i8*
  call void @llvm.lifetime.start.p0i8(i64 40000, i8* nonnull %6) #3
  %7 = call i32 (i8*, ...) @__isoc99_scanf(i8* getelementptr inbounds ([5 x i8], [5 x i8]* @.str, i64 0, i64 0), i32* nonnull %1, i32* nonnull %2)
  %8 = load i32, i32* %1, align 4, !tbaa !5
  %9 = load i32, i32* %2, align 4, !tbaa !5
  %10 = add i32 %9, %8
  %11 = icmp slt i32 %8, 1
  %12 = icmp slt i32 %9, 1
  %13 = select i1 %11, i1 true, i1 %12
  br i1 %13, label %19, label %14

14:                                               ; preds = %0, %37
  %15 = phi i32 [ %38, %37 ], [ %8, %0 ]
  %16 = phi i32 [ %39, %37 ], [ %9, %0 ]
  %17 = phi i64 [ %40, %37 ], [ 1, %0 ]
  %18 = icmp slt i32 %16, 1
  br i1 %18, label %37, label %27

19:                                               ; preds = %37, %0
  %20 = phi i32 [ %8, %0 ], [ %38, %37 ]
  %21 = icmp slt i32 %10, 2
  %22 = icmp slt i32 %20, 1
  %23 = select i1 %21, i1 true, i1 %22
  br i1 %23, label %71, label %24

24:                                               ; preds = %19
  %25 = add nuw i32 %10, 1
  %26 = zext i32 %25 to i64
  br label %43

27:                                               ; preds = %14, %27
  %28 = phi i64 [ %31, %27 ], [ 1, %14 ]
  %29 = getelementptr inbounds [100 x [100 x i32]], [100 x [100 x i32]]* %3, i64 0, i64 %17, i64 %28
  %30 = call i32 (i8*, ...) @__isoc99_scanf(i8* getelementptr inbounds ([3 x i8], [3 x i8]* @.str.1, i64 0, i64 0), i32* nonnull %29)
  %31 = add nuw nsw i64 %28, 1
  %32 = load i32, i32* %2, align 4, !tbaa !5
  %33 = sext i32 %32 to i64
  %34 = icmp slt i64 %28, %33
  br i1 %34, label %27, label %35, !llvm.loop !9

35:                                               ; preds = %27
  %36 = load i32, i32* %1, align 4, !tbaa !5
  br label %37

37:                                               ; preds = %35, %14
  %38 = phi i32 [ %36, %35 ], [ %15, %14 ]
  %39 = phi i32 [ %32, %35 ], [ %16, %14 ]
  %40 = add nuw nsw i64 %17, 1
  %41 = sext i32 %38 to i64
  %42 = icmp slt i64 %17, %41
  br i1 %42, label %14, label %19, !llvm.loop !11

43:                                               ; preds = %69, %24
  %44 = phi i32 [ %20, %24 ], [ %70, %69 ]
  %45 = phi i64 [ 2, %24 ], [ %67, %69 ]
  %46 = icmp slt i32 %44, 1
  br i1 %46, label %66, label %47

47:                                               ; preds = %43, %61
  %48 = phi i32 [ %62, %61 ], [ %44, %43 ]
  %49 = phi i64 [ %63, %61 ], [ 1, %43 ]
  %50 = sub nsw i64 %45, %49
  %51 = load i32, i32* %2, align 4, !tbaa !5
  %52 = sext i32 %51 to i64
  %53 = icmp sgt i64 %50, %52
  br i1 %53, label %61, label %54

54:                                               ; preds = %47
  %55 = getelementptr inbounds [100 x [100 x i32]], [100 x [100 x i32]]* %3, i64 0, i64 %49, i64 %50
  %56 = load i32, i32* %55, align 4, !tbaa !5
  %57 = call i32 (i8*, ...) @printf(i8* nonnull dereferenceable(1) getelementptr inbounds ([4 x i8], [4 x i8]* @.str.2, i64 0, i64 0), i32 %56)
  %58 = icmp eq i64 %50, 1
  br i1 %58, label %66, label %59

59:                                               ; preds = %54
  %60 = load i32, i32* %1, align 4, !tbaa !5
  br label %61

61:                                               ; preds = %59, %47
  %62 = phi i32 [ %60, %59 ], [ %48, %47 ]
  %63 = add nuw nsw i64 %49, 1
  %64 = sext i32 %62 to i64
  %65 = icmp slt i64 %49, %64
  br i1 %65, label %47, label %66, !llvm.loop !13

66:                                               ; preds = %54, %61, %43
  %67 = add nuw nsw i64 %45, 1
  %68 = icmp eq i64 %67, %26
  br i1 %68, label %71, label %69, !llvm.loop !14

69:                                               ; preds = %66
  %70 = load i32, i32* %1, align 4, !tbaa !5
  br label %43

71:                                               ; preds = %66, %19
  call void @llvm.lifetime.end.p0i8(i64 40000, i8* nonnull %6) #3
  call void @llvm.lifetime.end.p0i8(i64 4, i8* nonnull %5) #3
  call void @llvm.lifetime.end.p0i8(i64 4, i8* nonnull %4) #3
  ret i32 0
}

; Function Attrs: argmemonly mustprogress nofree nosync nounwind willreturn
declare void @llvm.lifetime.start.p0i8(i64 immarg, i8* nocapture) #1

; Function Attrs: nofree nounwind
declare noundef i32 @__isoc99_scanf(i8* nocapture noundef readonly, ...) local_unnamed_addr #2

; Function Attrs: nofree nounwind
declare noundef i32 @printf(i8* nocapture noundef readonly, ...) local_unnamed_addr #2

; Function Attrs: argmemonly mustprogress nofree nosync nounwind willreturn
declare void @llvm.lifetime.end.p0i8(i64 immarg, i8* nocapture) #1


!llvm.module.flags = !{!0, !1, !2, !3}
!llvm.ident = !{!4}

!0 = !{i32 1, !"wchar_size", i32 4}
!1 = !{i32 7, !"PIC Level", i32 2}
!2 = !{i32 7, !"PIE Level", i32 2}
!3 = !{i32 7, !"uwtable", i32 1}
!4 = !{!"clang version 13.0.0"}
!5 = !{!6, !6, i64 0}
!6 = !{!"int", !7, i64 0}
!7 = !{!"omnipotent char", !8, i64 0}
!8 = !{!"Simple C/C++ TBAA"}
!9 = distinct !{!9, !10}
!10 = !{!"llvm.loop.mustprogress"}
!11 = distinct !{!11, !10, !12}
!12 = !{!"llvm.loop.unswitch.partial.disable"}
!13 = distinct !{!13, !10}
!14 = distinct !{!14, !10, !12}
